
guess:     file format elf64-x86-64


Disassembly of section .init:

0000000000001000 <_init>:
    1000:	f3 0f 1e fa          	endbr64 
    1004:	48 83 ec 08          	sub    rsp,0x8
    1008:	48 8b 05 d9 2f 00 00 	mov    rax,QWORD PTR [rip+0x2fd9]        # 3fe8 <__gmon_start__@Base>
    100f:	48 85 c0             	test   rax,rax
    1012:	74 02                	je     1016 <_init+0x16>
    1014:	ff d0                	call   rax
    1016:	48 83 c4 08          	add    rsp,0x8
    101a:	c3                   	ret    

Disassembly of section .plt:

0000000000001020 <.plt>:
    1020:	ff 35 5a 2f 00 00    	push   QWORD PTR [rip+0x2f5a]        # 3f80 <_GLOBAL_OFFSET_TABLE_+0x8>
    1026:	f2 ff 25 5b 2f 00 00 	bnd jmp QWORD PTR [rip+0x2f5b]        # 3f88 <_GLOBAL_OFFSET_TABLE_+0x10>
    102d:	0f 1f 00             	nop    DWORD PTR [rax]
    1030:	f3 0f 1e fa          	endbr64 
    1034:	68 00 00 00 00       	push   0x0
    1039:	f2 e9 e1 ff ff ff    	bnd jmp 1020 <_init+0x20>
    103f:	90                   	nop
    1040:	f3 0f 1e fa          	endbr64 
    1044:	68 01 00 00 00       	push   0x1
    1049:	f2 e9 d1 ff ff ff    	bnd jmp 1020 <_init+0x20>
    104f:	90                   	nop
    1050:	f3 0f 1e fa          	endbr64 
    1054:	68 02 00 00 00       	push   0x2
    1059:	f2 e9 c1 ff ff ff    	bnd jmp 1020 <_init+0x20>
    105f:	90                   	nop
    1060:	f3 0f 1e fa          	endbr64 
    1064:	68 03 00 00 00       	push   0x3
    1069:	f2 e9 b1 ff ff ff    	bnd jmp 1020 <_init+0x20>
    106f:	90                   	nop
    1070:	f3 0f 1e fa          	endbr64 
    1074:	68 04 00 00 00       	push   0x4
    1079:	f2 e9 a1 ff ff ff    	bnd jmp 1020 <_init+0x20>
    107f:	90                   	nop
    1080:	f3 0f 1e fa          	endbr64 
    1084:	68 05 00 00 00       	push   0x5
    1089:	f2 e9 91 ff ff ff    	bnd jmp 1020 <_init+0x20>
    108f:	90                   	nop
    1090:	f3 0f 1e fa          	endbr64 
    1094:	68 06 00 00 00       	push   0x6
    1099:	f2 e9 81 ff ff ff    	bnd jmp 1020 <_init+0x20>
    109f:	90                   	nop
    10a0:	f3 0f 1e fa          	endbr64 
    10a4:	68 07 00 00 00       	push   0x7
    10a9:	f2 e9 71 ff ff ff    	bnd jmp 1020 <_init+0x20>
    10af:	90                   	nop
    10b0:	f3 0f 1e fa          	endbr64 
    10b4:	68 08 00 00 00       	push   0x8
    10b9:	f2 e9 61 ff ff ff    	bnd jmp 1020 <_init+0x20>
    10bf:	90                   	nop

Disassembly of section .plt.got:

00000000000010c0 <__cxa_finalize@plt>:
    10c0:	f3 0f 1e fa          	endbr64 
    10c4:	f2 ff 25 2d 2f 00 00 	bnd jmp QWORD PTR [rip+0x2f2d]        # 3ff8 <__cxa_finalize@GLIBC_2.2.5>
    10cb:	0f 1f 44 00 00       	nop    DWORD PTR [rax+rax*1+0x0]

Disassembly of section .plt.sec:

00000000000010d0 <puts@plt>:
    10d0:	f3 0f 1e fa          	endbr64 
    10d4:	f2 ff 25 b5 2e 00 00 	bnd jmp QWORD PTR [rip+0x2eb5]        # 3f90 <puts@GLIBC_2.2.5>
    10db:	0f 1f 44 00 00       	nop    DWORD PTR [rax+rax*1+0x0]

00000000000010e0 <getpid@plt>:
    10e0:	f3 0f 1e fa          	endbr64 
    10e4:	f2 ff 25 ad 2e 00 00 	bnd jmp QWORD PTR [rip+0x2ead]        # 3f98 <getpid@GLIBC_2.2.5>
    10eb:	0f 1f 44 00 00       	nop    DWORD PTR [rax+rax*1+0x0]

00000000000010f0 <printf@plt>:
    10f0:	f3 0f 1e fa          	endbr64 
    10f4:	f2 ff 25 a5 2e 00 00 	bnd jmp QWORD PTR [rip+0x2ea5]        # 3fa0 <printf@GLIBC_2.2.5>
    10fb:	0f 1f 44 00 00       	nop    DWORD PTR [rax+rax*1+0x0]

0000000000001100 <srand@plt>:
    1100:	f3 0f 1e fa          	endbr64 
    1104:	f2 ff 25 9d 2e 00 00 	bnd jmp QWORD PTR [rip+0x2e9d]        # 3fa8 <srand@GLIBC_2.2.5>
    110b:	0f 1f 44 00 00       	nop    DWORD PTR [rax+rax*1+0x0]

0000000000001110 <fgets@plt>:
    1110:	f3 0f 1e fa          	endbr64 
    1114:	f2 ff 25 95 2e 00 00 	bnd jmp QWORD PTR [rip+0x2e95]        # 3fb0 <fgets@GLIBC_2.2.5>
    111b:	0f 1f 44 00 00       	nop    DWORD PTR [rax+rax*1+0x0]

0000000000001120 <strtol@plt>:
    1120:	f3 0f 1e fa          	endbr64 
    1124:	f2 ff 25 8d 2e 00 00 	bnd jmp QWORD PTR [rip+0x2e8d]        # 3fb8 <strtol@GLIBC_2.2.5>
    112b:	0f 1f 44 00 00       	nop    DWORD PTR [rax+rax*1+0x0]

0000000000001130 <time@plt>:
    1130:	f3 0f 1e fa          	endbr64 
    1134:	f2 ff 25 85 2e 00 00 	bnd jmp QWORD PTR [rip+0x2e85]        # 3fc0 <time@GLIBC_2.2.5>
    113b:	0f 1f 44 00 00       	nop    DWORD PTR [rax+rax*1+0x0]

0000000000001140 <setvbuf@plt>:
    1140:	f3 0f 1e fa          	endbr64 
    1144:	f2 ff 25 7d 2e 00 00 	bnd jmp QWORD PTR [rip+0x2e7d]        # 3fc8 <setvbuf@GLIBC_2.2.5>
    114b:	0f 1f 44 00 00       	nop    DWORD PTR [rax+rax*1+0x0]

0000000000001150 <rand@plt>:
    1150:	f3 0f 1e fa          	endbr64 
    1154:	f2 ff 25 75 2e 00 00 	bnd jmp QWORD PTR [rip+0x2e75]        # 3fd0 <rand@GLIBC_2.2.5>
    115b:	0f 1f 44 00 00       	nop    DWORD PTR [rax+rax*1+0x0]

Disassembly of section .text:

0000000000001160 <_start>:
    1160:	f3 0f 1e fa          	endbr64 
    1164:	31 ed                	xor    ebp,ebp
    1166:	49 89 d1             	mov    r9,rdx
    1169:	5e                   	pop    rsi
    116a:	48 89 e2             	mov    rdx,rsp
    116d:	48 83 e4 f0          	and    rsp,0xfffffffffffffff0
    1171:	50                   	push   rax
    1172:	54                   	push   rsp
    1173:	45 31 c0             	xor    r8d,r8d
    1176:	31 c9                	xor    ecx,ecx
    1178:	48 8d 3d ca 00 00 00 	lea    rdi,[rip+0xca]        # 1249 <main>
    117f:	ff 15 53 2e 00 00    	call   QWORD PTR [rip+0x2e53]        # 3fd8 <__libc_start_main@GLIBC_2.34>
    1185:	f4                   	hlt    
    1186:	66 2e 0f 1f 84 00 00 	cs nop WORD PTR [rax+rax*1+0x0]
    118d:	00 00 00 

0000000000001190 <deregister_tm_clones>:
    1190:	48 8d 3d 79 2e 00 00 	lea    rdi,[rip+0x2e79]        # 4010 <stdout@GLIBC_2.2.5>
    1197:	48 8d 05 72 2e 00 00 	lea    rax,[rip+0x2e72]        # 4010 <stdout@GLIBC_2.2.5>
    119e:	48 39 f8             	cmp    rax,rdi
    11a1:	74 15                	je     11b8 <deregister_tm_clones+0x28>
    11a3:	48 8b 05 36 2e 00 00 	mov    rax,QWORD PTR [rip+0x2e36]        # 3fe0 <_ITM_deregisterTMCloneTable@Base>
    11aa:	48 85 c0             	test   rax,rax
    11ad:	74 09                	je     11b8 <deregister_tm_clones+0x28>
    11af:	ff e0                	jmp    rax
    11b1:	0f 1f 80 00 00 00 00 	nop    DWORD PTR [rax+0x0]
    11b8:	c3                   	ret    
    11b9:	0f 1f 80 00 00 00 00 	nop    DWORD PTR [rax+0x0]

00000000000011c0 <register_tm_clones>:
    11c0:	48 8d 3d 49 2e 00 00 	lea    rdi,[rip+0x2e49]        # 4010 <stdout@GLIBC_2.2.5>
    11c7:	48 8d 35 42 2e 00 00 	lea    rsi,[rip+0x2e42]        # 4010 <stdout@GLIBC_2.2.5>
    11ce:	48 29 fe             	sub    rsi,rdi
    11d1:	48 89 f0             	mov    rax,rsi
    11d4:	48 c1 ee 3f          	shr    rsi,0x3f
    11d8:	48 c1 f8 03          	sar    rax,0x3
    11dc:	48 01 c6             	add    rsi,rax
    11df:	48 d1 fe             	sar    rsi,1
    11e2:	74 14                	je     11f8 <register_tm_clones+0x38>
    11e4:	48 8b 05 05 2e 00 00 	mov    rax,QWORD PTR [rip+0x2e05]        # 3ff0 <_ITM_registerTMCloneTable@Base>
    11eb:	48 85 c0             	test   rax,rax
    11ee:	74 08                	je     11f8 <register_tm_clones+0x38>
    11f0:	ff e0                	jmp    rax
    11f2:	66 0f 1f 44 00 00    	nop    WORD PTR [rax+rax*1+0x0]
    11f8:	c3                   	ret    
    11f9:	0f 1f 80 00 00 00 00 	nop    DWORD PTR [rax+0x0]

0000000000001200 <__do_global_dtors_aux>:
    1200:	f3 0f 1e fa          	endbr64 
    1204:	80 3d 1d 2e 00 00 00 	cmp    BYTE PTR [rip+0x2e1d],0x0        # 4028 <completed.0>
    120b:	75 2b                	jne    1238 <__do_global_dtors_aux+0x38>
    120d:	55                   	push   rbp
    120e:	48 83 3d e2 2d 00 00 	cmp    QWORD PTR [rip+0x2de2],0x0        # 3ff8 <__cxa_finalize@GLIBC_2.2.5>
    1215:	00 
    1216:	48 89 e5             	mov    rbp,rsp
    1219:	74 0c                	je     1227 <__do_global_dtors_aux+0x27>
    121b:	48 8b 3d e6 2d 00 00 	mov    rdi,QWORD PTR [rip+0x2de6]        # 4008 <__dso_handle>
    1222:	e8 99 fe ff ff       	call   10c0 <__cxa_finalize@plt>
    1227:	e8 64 ff ff ff       	call   1190 <deregister_tm_clones>
    122c:	c6 05 f5 2d 00 00 01 	mov    BYTE PTR [rip+0x2df5],0x1        # 4028 <completed.0>
    1233:	5d                   	pop    rbp
    1234:	c3                   	ret    
    1235:	0f 1f 00             	nop    DWORD PTR [rax]
    1238:	c3                   	ret    
    1239:	0f 1f 80 00 00 00 00 	nop    DWORD PTR [rax+0x0]

0000000000001240 <frame_dummy>:
    1240:	f3 0f 1e fa          	endbr64 
    1244:	e9 77 ff ff ff       	jmp    11c0 <register_tm_clones>

0000000000001249 <main>:
    1249:	f3 0f 1e fa          	endbr64 
    124d:	55                   	push   rbp
    124e:	48 89 e5             	mov    rbp,rsp
    1251:	53                   	push   rbx
    1252:	48 83 ec 28          	sub    rsp,0x28
    1256:	48 8b 05 b3 2d 00 00 	mov    rax,QWORD PTR [rip+0x2db3]        # 4010 <stdout@GLIBC_2.2.5>
    125d:	b9 00 00 00 00       	mov    ecx,0x0
    1262:	ba 02 00 00 00       	mov    edx,0x2
    1267:	be 00 00 00 00       	mov    esi,0x0
    126c:	48 89 c7             	mov    rdi,rax
    126f:	e8 cc fe ff ff       	call   1140 <setvbuf@plt>
    1274:	bf 00 00 00 00       	mov    edi,0x0
    1279:	e8 b2 fe ff ff       	call   1130 <time@plt>
    127e:	89 c3                	mov    ebx,eax
    1280:	e8 5b fe ff ff       	call   10e0 <getpid@plt>
    1285:	31 d8                	xor    eax,ebx
    1287:	89 c7                	mov    edi,eax
    1289:	e8 72 fe ff ff       	call   1100 <srand@plt>
    128e:	e8 bd fe ff ff       	call   1150 <rand@plt>
    1293:	48 63 d0             	movsxd rdx,eax
    1296:	48 69 d2 ad 8b db 68 	imul   rdx,rdx,0x68db8bad
    129d:	48 c1 ea 20          	shr    rdx,0x20
    12a1:	c1 fa 0c             	sar    edx,0xc
    12a4:	89 c1                	mov    ecx,eax
    12a6:	c1 f9 1f             	sar    ecx,0x1f
    12a9:	29 ca                	sub    edx,ecx
    12ab:	89 55 ec             	mov    DWORD PTR [rbp-0x14],edx
    12ae:	8b 55 ec             	mov    edx,DWORD PTR [rbp-0x14]
    12b1:	69 d2 10 27 00 00    	imul   edx,edx,0x2710
    12b7:	29 d0                	sub    eax,edx
    12b9:	89 45 ec             	mov    DWORD PTR [rbp-0x14],eax
    12bc:	48 8d 05 41 0d 00 00 	lea    rax,[rip+0xd41]        # 2004 <_IO_stdin_used+0x4>
    12c3:	48 89 c7             	mov    rdi,rax
    12c6:	b8 00 00 00 00       	mov    eax,0x0
    12cb:	e8 20 fe ff ff       	call   10f0 <printf@plt>
    12d0:	48 8b 15 49 2d 00 00 	mov    rdx,QWORD PTR [rip+0x2d49]        # 4020 <stdin@GLIBC_2.2.5>
    12d7:	48 8d 45 d0          	lea    rax,[rbp-0x30]
    12db:	be 20 00 00 00       	mov    esi,0x20
    12e0:	48 89 c7             	mov    rdi,rax
    12e3:	e8 28 fe ff ff       	call   1110 <fgets@plt>
    12e8:	48 85 c0             	test   rax,rax
    12eb:	74 5a                	je     1347 <main+0xfe>
    12ed:	48 8d 45 d0          	lea    rax,[rbp-0x30]
    12f1:	ba 00 00 00 00       	mov    edx,0x0
    12f6:	be 00 00 00 00       	mov    esi,0x0
    12fb:	48 89 c7             	mov    rdi,rax
    12fe:	e8 1d fe ff ff       	call   1120 <strtol@plt>
    1303:	89 45 e8             	mov    DWORD PTR [rbp-0x18],eax
    1306:	8b 45 e8             	mov    eax,DWORD PTR [rbp-0x18]
    1309:	89 c6                	mov    esi,eax
    130b:	48 8d 05 05 0d 00 00 	lea    rax,[rip+0xd05]        # 2017 <_IO_stdin_used+0x17>
    1312:	48 89 c7             	mov    rdi,rax
    1315:	b8 00 00 00 00       	mov    eax,0x0
    131a:	e8 d1 fd ff ff       	call   10f0 <printf@plt>
    131f:	8b 45 e8             	mov    eax,DWORD PTR [rbp-0x18]
    1322:	3b 45 ec             	cmp    eax,DWORD PTR [rbp-0x14]
    1325:	75 11                	jne    1338 <main+0xef>
    1327:	48 8d 05 fb 0c 00 00 	lea    rax,[rip+0xcfb]        # 2029 <_IO_stdin_used+0x29>
    132e:	48 89 c7             	mov    rdi,rax
    1331:	e8 9a fd ff ff       	call   10d0 <puts@plt>
    1336:	eb 0f                	jmp    1347 <main+0xfe>
    1338:	48 8d 05 f1 0c 00 00 	lea    rax,[rip+0xcf1]        # 2030 <_IO_stdin_used+0x30>
    133f:	48 89 c7             	mov    rdi,rax
    1342:	e8 89 fd ff ff       	call   10d0 <puts@plt>
    1347:	b8 00 00 00 00       	mov    eax,0x0
    134c:	48 8b 5d f8          	mov    rbx,QWORD PTR [rbp-0x8]
    1350:	c9                   	leave  
    1351:	c3                   	ret    

Disassembly of section .fini:

0000000000001354 <_fini>:
    1354:	f3 0f 1e fa          	endbr64 
    1358:	48 83 ec 08          	sub    rsp,0x8
    135c:	48 83 c4 08          	add    rsp,0x8
    1360:	c3                   	ret    
